target datalayout = "e-m:e-p270:32:32-p271:32:32-p272:64:64-i64:64-i128:128-f80:128-n8:16:32:64-S128"
target triple = "x86_64-pc-linux-gnu"

%class.colvarproxy_system = type { ptr, %"class.std::__cxx11::basic_string", double, double, i8, double, double, double, double, double, i8, i32, %"class.colvarmodule::rvector", %"class.colvarmodule::rvector", %"class.colvarmodule::rvector", %"class.colvarmodule::rvector", %"class.colvarmodule::rvector", %"class.colvarmodule::rvector" }
%"class.std::__cxx11::basic_string" = type { %"struct.std::__cxx11::basic_string<char>::_Alloc_hider", i64, %union.anon }
%"struct.std::__cxx11::basic_string<char>::_Alloc_hider" = type { ptr }
%union.anon = type { i64, [8 x i8] }
%"class.colvarmodule::rvector" = type { double, double, double }
%"class.std::allocator" = type { i8 }

@.str.1 = private unnamed_addr constant [50 x i8] c"basic_string: construction from null is not valid\00", align 1
@.str.2 = private unnamed_addr constant [57 x i8] c"Error: setting PBC lattice with unsupported boundaries.\0A\00", align 1

; Function Attrs: mustprogress nounwind uwtable
define linkonce_odr void @_ZN12colvarmodule7rvector3setEddd(ptr noundef nonnull align 8 dereferenceable(24) %0, double noundef %1, double noundef %2, double noundef %3) #0 comdat align 2 {
  %5 = alloca ptr, align 8
  %6 = alloca double, align 8
  %7 = alloca double, align 8
  %8 = alloca double, align 8
  store ptr %0, ptr %5, align 8
  store double %1, ptr %6, align 8
  store double %2, ptr %7, align 8
  store double %3, ptr %8, align 8
  %9 = load ptr, ptr %5, align 8
  %10 = load double, ptr %6, align 8
  %11 = getelementptr inbounds %"class.colvarmodule::rvector", ptr %9, i32 0, i32 0
  store double %10, ptr %11, align 8
  %12 = load double, ptr %7, align 8
  %13 = getelementptr inbounds %"class.colvarmodule::rvector", ptr %9, i32 0, i32 1
  store double %12, ptr %13, align 8
  %14 = load double, ptr %8, align 8
  %15 = getelementptr inbounds %"class.colvarmodule::rvector", ptr %9, i32 0, i32 2
  store double %14, ptr %15, align 8
  ret void
}

; Function Attrs: mustprogress uwtable
define linkonce_odr void @_ZN12colvarmodule7rvectorC2Eddd(ptr noundef nonnull align 8 dereferenceable(24) %0, double noundef %1, double noundef %2, double noundef %3) unnamed_addr #1 comdat align 2 {
  %5 = alloca ptr, align 8
  %6 = alloca double, align 8
  %7 = alloca double, align 8
  %8 = alloca double, align 8
  store ptr %0, ptr %5, align 8
  store double %1, ptr %6, align 8
  store double %2, ptr %7, align 8
  store double %3, ptr %8, align 8
  %9 = load ptr, ptr %5, align 8
  %10 = load double, ptr %6, align 8
  %11 = load double, ptr %7, align 8
  %12 = load double, ptr %8, align 8
  call void @_ZN12colvarmodule7rvector3setEddd(ptr noundef nonnull align 8 dereferenceable(24) %9, double noundef %10, double noundef %11, double noundef %12)
  ret void
}

; Function Attrs: mustprogress nounwind uwtable
define linkonce_odr noundef i64 @_ZNSt11char_traitsIcE6lengthEPKc(ptr noundef %0) #0 comdat align 2 {
  %2 = alloca ptr, align 8
  store ptr %0, ptr %2, align 8
  %3 = load ptr, ptr %2, align 8
  %4 = call i64 @strlen(ptr noundef %3) #9
  ret i64 %4
}

; Function Attrs: mustprogress nounwind uwtable
define linkonce_odr void @_ZNSt7__cxx1112basic_stringIcSt11char_traitsIcESaIcEE12_Alloc_hiderD2Ev(ptr noundef nonnull align 8 dereferenceable(8) %0) unnamed_addr #0 comdat align 2 {
  %2 = alloca ptr, align 8
  store ptr %0, ptr %2, align 8
  %3 = load ptr, ptr %2, align 8
  call void @_ZNSaIcED2Ev(ptr noundef nonnull align 1 dereferenceable(1) %3) #9
  ret void
}

; Function Attrs: mustprogress uwtable
define linkonce_odr void @_ZdvRKN12colvarmodule7rvectorEd(ptr dead_on_unwind noalias writable sret(%"class.colvarmodule::rvector") align 8 %0, ptr noundef nonnull align 8 dereferenceable(24) %1, double noundef %2) #1 comdat {
  %4 = alloca ptr, align 8
  %5 = alloca double, align 8
  store ptr %1, ptr %4, align 8
  store double %2, ptr %5, align 8
  %6 = load ptr, ptr %4, align 8
  %7 = getelementptr inbounds %"class.colvarmodule::rvector", ptr %6, i32 0, i32 0
  %8 = load double, ptr %7, align 8
  %9 = load double, ptr %5, align 8
  %10 = fdiv double %8, %9
  %11 = load ptr, ptr %4, align 8
  %12 = getelementptr inbounds %"class.colvarmodule::rvector", ptr %11, i32 0, i32 1
  %13 = load double, ptr %12, align 8
  %14 = load double, ptr %5, align 8
  %15 = fdiv double %13, %14
  %16 = load ptr, ptr %4, align 8
  %17 = getelementptr inbounds %"class.colvarmodule::rvector", ptr %16, i32 0, i32 2
  %18 = load double, ptr %17, align 8
  %19 = load double, ptr %5, align 8
  %20 = fdiv double %18, %19
  call void @_ZN12colvarmodule7rvectorC2Eddd(ptr noundef nonnull align 8 dereferenceable(24) %0, double noundef %10, double noundef %15, double noundef %20)
  ret void
}

; Function Attrs: mustprogress nounwind uwtable
define linkonce_odr noundef double @_ZmlRKN12colvarmodule7rvectorES2_(ptr noundef nonnull align 8 dereferenceable(24) %0, ptr noundef nonnull align 8 dereferenceable(24) %1) #0 comdat {
  %3 = alloca ptr, align 8
  %4 = alloca ptr, align 8
  store ptr %0, ptr %3, align 8
  store ptr %1, ptr %4, align 8
  %5 = load ptr, ptr %3, align 8
  %6 = getelementptr inbounds %"class.colvarmodule::rvector", ptr %5, i32 0, i32 0
  %7 = load double, ptr %6, align 8
  %8 = load ptr, ptr %4, align 8
  %9 = getelementptr inbounds %"class.colvarmodule::rvector", ptr %8, i32 0, i32 0
  %10 = load double, ptr %9, align 8
  %11 = load ptr, ptr %3, align 8
  %12 = getelementptr inbounds %"class.colvarmodule::rvector", ptr %11, i32 0, i32 1
  %13 = load double, ptr %12, align 8
  %14 = load ptr, ptr %4, align 8
  %15 = getelementptr inbounds %"class.colvarmodule::rvector", ptr %14, i32 0, i32 1
  %16 = load double, ptr %15, align 8
  %17 = fmul double %13, %16
  %18 = call double @llvm.fmuladd.f64(double %7, double %10, double %17)
  %19 = load ptr, ptr %3, align 8
  %20 = getelementptr inbounds %"class.colvarmodule::rvector", ptr %19, i32 0, i32 2
  %21 = load double, ptr %20, align 8
  %22 = load ptr, ptr %4, align 8
  %23 = getelementptr inbounds %"class.colvarmodule::rvector", ptr %22, i32 0, i32 2
  %24 = load double, ptr %23, align 8
  %25 = call double @llvm.fmuladd.f64(double %21, double %24, double %18)
  ret double %25
}

; Function Attrs: mustprogress uwtable
define linkonce_odr void @_ZN12colvarmodule7rvector5outerERKS0_S2_(ptr dead_on_unwind noalias writable sret(%"class.colvarmodule::rvector") align 8 %0, ptr noundef nonnull align 8 dereferenceable(24) %1, ptr noundef nonnull align 8 dereferenceable(24) %2) #1 comdat align 2 {
  %4 = alloca ptr, align 8
  %5 = alloca ptr, align 8
  store ptr %1, ptr %4, align 8
  store ptr %2, ptr %5, align 8
  %6 = load ptr, ptr %4, align 8
  %7 = getelementptr inbounds %"class.colvarmodule::rvector", ptr %6, i32 0, i32 1
  %8 = load double, ptr %7, align 8
  %9 = load ptr, ptr %5, align 8
  %10 = getelementptr inbounds %"class.colvarmodule::rvector", ptr %9, i32 0, i32 2
  %11 = load double, ptr %10, align 8
  %12 = load ptr, ptr %5, align 8
  %13 = getelementptr inbounds %"class.colvarmodule::rvector", ptr %12, i32 0, i32 1
  %14 = load double, ptr %13, align 8
  %15 = load ptr, ptr %4, align 8
  %16 = getelementptr inbounds %"class.colvarmodule::rvector", ptr %15, i32 0, i32 2
  %17 = load double, ptr %16, align 8
  %18 = fmul double %14, %17
  %19 = fneg double %18
  %20 = call double @llvm.fmuladd.f64(double %8, double %11, double %19)
  %21 = load ptr, ptr %4, align 8
  %22 = getelementptr inbounds %"class.colvarmodule::rvector", ptr %21, i32 0, i32 0
  %23 = load double, ptr %22, align 8
  %24 = fneg double %23
  %25 = load ptr, ptr %5, align 8
  %26 = getelementptr inbounds %"class.colvarmodule::rvector", ptr %25, i32 0, i32 2
  %27 = load double, ptr %26, align 8
  %28 = load ptr, ptr %5, align 8
  %29 = getelementptr inbounds %"class.colvarmodule::rvector", ptr %28, i32 0, i32 0
  %30 = load double, ptr %29, align 8
  %31 = load ptr, ptr %4, align 8
  %32 = getelementptr inbounds %"class.colvarmodule::rvector", ptr %31, i32 0, i32 2
  %33 = load double, ptr %32, align 8
  %34 = fmul double %30, %33
  %35 = call double @llvm.fmuladd.f64(double %24, double %27, double %34)
  %36 = load ptr, ptr %4, align 8
  %37 = getelementptr inbounds %"class.colvarmodule::rvector", ptr %36, i32 0, i32 0
  %38 = load double, ptr %37, align 8
  %39 = load ptr, ptr %5, align 8
  %40 = getelementptr inbounds %"class.colvarmodule::rvector", ptr %39, i32 0, i32 1
  %41 = load double, ptr %40, align 8
  %42 = load ptr, ptr %5, align 8
  %43 = getelementptr inbounds %"class.colvarmodule::rvector", ptr %42, i32 0, i32 0
  %44 = load double, ptr %43, align 8
  %45 = load ptr, ptr %4, align 8
  %46 = getelementptr inbounds %"class.colvarmodule::rvector", ptr %45, i32 0, i32 1
  %47 = load double, ptr %46, align 8
  %48 = fmul double %44, %47
  %49 = fneg double %48
  %50 = call double @llvm.fmuladd.f64(double %38, double %41, double %49)
  call void @_ZN12colvarmodule7rvectorC2Eddd(ptr noundef nonnull align 8 dereferenceable(24) %0, double noundef %20, double noundef %35, double noundef %50)
  ret void
}

; Function Attrs: mustprogress uwtable
define linkonce_odr void @_ZNSt7__cxx1112basic_stringIcSt11char_traitsIcESaIcEEC2IS3_EEPKcRKS3_(ptr noundef nonnull align 8 dereferenceable(32) %0, ptr noundef %1, ptr noundef nonnull align 1 dereferenceable(1) %2) unnamed_addr #1 comdat align 2 personality ptr @__gxx_personality_v0 {
  %4 = alloca ptr, align 8
  %5 = alloca ptr, align 8
  %6 = alloca ptr, align 8
  %7 = alloca ptr, align 8
  %8 = alloca i32, align 4
  %9 = alloca ptr, align 8
  store ptr %0, ptr %4, align 8
  store ptr %1, ptr %5, align 8
  store ptr %2, ptr %6, align 8
  %10 = load ptr, ptr %4, align 8
  %11 = getelementptr inbounds %"class.std::__cxx11::basic_string", ptr %10, i32 0, i32 0
  %12 = call noundef ptr @_ZNSt7__cxx1112basic_stringIcSt11char_traitsIcESaIcEE13_M_local_dataEv(ptr noundef nonnull align 8 dereferenceable(32) %10)
  %13 = load ptr, ptr %6, align 8
  call void @_ZNSt7__cxx1112basic_stringIcSt11char_traitsIcESaIcEE12_Alloc_hiderC1EPcRKS3_(ptr noundef nonnull align 8 dereferenceable(8) %11, ptr noundef %12, ptr noundef nonnull align 1 dereferenceable(1) %13)
  %14 = load ptr, ptr %5, align 8
  %15 = icmp eq ptr %14, null
  br i1 %15, label %16, label %22

16:                                               ; preds = %3
  invoke void @_ZSt19__throw_logic_errorPKc(ptr noundef @.str.1) #11
          to label %17 unwind label %18

17:                                               ; preds = %16
  unreachable

18:                                               ; preds = %26, %22, %16
  %19 = landingpad { ptr, i32 }
          cleanup
  %20 = extractvalue { ptr, i32 } %19, 0
  store ptr %20, ptr %7, align 8
  %21 = extractvalue { ptr, i32 } %19, 1
  store i32 %21, ptr %8, align 4
  call void @_ZNSt7__cxx1112basic_stringIcSt11char_traitsIcESaIcEE12_Alloc_hiderD2Ev(ptr noundef nonnull align 8 dereferenceable(8) %11) #9
  br label %31

22:                                               ; preds = %3
  %23 = load ptr, ptr %5, align 8
  %24 = load ptr, ptr %5, align 8
  %25 = invoke noundef i64 @_ZNSt11char_traitsIcE6lengthEPKc(ptr noundef %24)
          to label %26 unwind label %18

26:                                               ; preds = %22
  %27 = getelementptr inbounds i8, ptr %23, i64 %25
  store ptr %27, ptr %9, align 8
  %28 = load ptr, ptr %5, align 8
  %29 = load ptr, ptr %9, align 8
  invoke void @_ZNSt7__cxx1112basic_stringIcSt11char_traitsIcESaIcEE12_M_constructIPKcEEvT_S8_St20forward_iterator_tag(ptr noundef nonnull align 8 dereferenceable(32) %10, ptr noundef %28, ptr noundef %29)
          to label %30 unwind label %18

30:                                               ; preds = %26
  ret void

31:                                               ; preds = %18
  %32 = load ptr, ptr %7, align 8
  %33 = load i32, ptr %8, align 4
  %34 = insertvalue { ptr, i32 } poison, ptr %32, 0
  %35 = insertvalue { ptr, i32 } %34, i32 %33, 1
  resume { ptr, i32 } %35
}

; Function Attrs: mustprogress uwtable
define void @_ZN18colvarproxy_system18update_pbc_latticeEv(ptr noundef nonnull align 8 dereferenceable(256) %0) #1 align 2 personality ptr @__gxx_personality_v0 {
  %2 = alloca ptr, align 8
  %3 = alloca %"class.std::__cxx11::basic_string", align 8
  %4 = alloca %"class.std::allocator", align 1
  %5 = alloca ptr, align 8
  %6 = alloca i32, align 4
  %7 = alloca %"class.colvarmodule::rvector", align 8
  %8 = alloca %"class.colvarmodule::rvector", align 8
  %9 = alloca %"class.colvarmodule::rvector", align 8
  %10 = alloca %"class.colvarmodule::rvector", align 8
  %11 = alloca %"class.colvarmodule::rvector", align 8
  %12 = alloca %"class.colvarmodule::rvector", align 8
  store ptr %0, ptr %2, align 8
  %13 = load ptr, ptr %2, align 8
  %14 = getelementptr inbounds %class.colvarproxy_system, ptr %13, i32 0, i32 11
  %15 = load i32, ptr %14, align 4
  %16 = icmp eq i32 %15, 3
  br i1 %16, label %21, label %17

17:                                               ; preds = %1
  %18 = getelementptr inbounds %class.colvarproxy_system, ptr %13, i32 0, i32 11
  %19 = load i32, ptr %18, align 4
  %20 = icmp eq i32 %19, 0
  br i1 %20, label %21, label %34

21:                                               ; preds = %17, %1
  call void @_ZNSaIcEC1Ev(ptr noundef nonnull align 1 dereferenceable(1) %4) #9
  invoke void @_ZNSt7__cxx1112basic_stringIcSt11char_traitsIcESaIcEEC2IS3_EEPKcRKS3_(ptr noundef nonnull align 8 dereferenceable(32) %3, ptr noundef @.str.2, ptr noundef nonnull align 1 dereferenceable(1) %4)
          to label %22 unwind label %25

22:                                               ; preds = %21
  %23 = invoke noundef i32 @_ZN12colvarmodule5errorERKNSt7__cxx1112basic_stringIcSt11char_traitsIcESaIcEEEi(ptr noundef nonnull align 8 dereferenceable(32) %3, i32 noundef 8)
          to label %24 unwind label %29

24:                                               ; preds = %22
  call void @_ZNSt7__cxx1112basic_stringIcSt11char_traitsIcESaIcEED1Ev(ptr noundef nonnull align 8 dereferenceable(32) %3) #9
  call void @_ZNSaIcED1Ev(ptr noundef nonnull align 1 dereferenceable(1) %4) #9
  br label %50

25:                                               ; preds = %21
  %26 = landingpad { ptr, i32 }
          cleanup
  %27 = extractvalue { ptr, i32 } %26, 0
  store ptr %27, ptr %5, align 8
  %28 = extractvalue { ptr, i32 } %26, 1
  store i32 %28, ptr %6, align 4
  br label %33

29:                                               ; preds = %22
  %30 = landingpad { ptr, i32 }
          cleanup
  %31 = extractvalue { ptr, i32 } %30, 0
  store ptr %31, ptr %5, align 8
  %32 = extractvalue { ptr, i32 } %30, 1
  store i32 %32, ptr %6, align 4
  call void @_ZNSt7__cxx1112basic_stringIcSt11char_traitsIcESaIcEED1Ev(ptr noundef nonnull align 8 dereferenceable(32) %3) #9
  br label %33

33:                                               ; preds = %29, %25
  call void @_ZNSaIcED1Ev(ptr noundef nonnull align 1 dereferenceable(1) %4) #9
  br label %51

34:                                               ; preds = %17
  %35 = getelementptr inbounds %class.colvarproxy_system, ptr %13, i32 0, i32 13
  %36 = getelementptr inbounds %class.colvarproxy_system, ptr %13, i32 0, i32 14
  call void @_ZN12colvarmodule7rvector5outerERKS0_S2_(ptr dead_on_unwind writable sret(%"class.colvarmodule::rvector") align 8 %7, ptr noundef nonnull align 8 dereferenceable(24) %35, ptr noundef nonnull align 8 dereferenceable(24) %36)
  %37 = getelementptr inbounds %class.colvarproxy_system, ptr %13, i32 0, i32 12
  %38 = call noundef double @_ZmlRKN12colvarmodule7rvectorES2_(ptr noundef nonnull align 8 dereferenceable(24) %7, ptr noundef nonnull align 8 dereferenceable(24) %37)
  call void @_ZdvRKN12colvarmodule7rvectorEd(ptr dead_on_unwind writable sret(%"class.colvarmodule::rvector") align 8 %8, ptr noundef nonnull align 8 dereferenceable(24) %7, double noundef %38)
  %39 = getelementptr inbounds %class.colvarproxy_system, ptr %13, i32 0, i32 15
  call void @llvm.memcpy.p0.p0.i64(ptr align 8 %39, ptr align 8 %8, i64 24, i1 false)
  %40 = getelementptr inbounds %class.colvarproxy_system, ptr %13, i32 0, i32 14
  %41 = getelementptr inbounds %class.colvarproxy_system, ptr %13, i32 0, i32 12
  call void @_ZN12colvarmodule7rvector5outerERKS0_S2_(ptr dead_on_unwind writable sret(%"class.colvarmodule::rvector") align 8 %9, ptr noundef nonnull align 8 dereferenceable(24) %40, ptr noundef nonnull align 8 dereferenceable(24) %41)
  %42 = getelementptr inbounds %class.colvarproxy_system, ptr %13, i32 0, i32 13
  %43 = call noundef double @_ZmlRKN12colvarmodule7rvectorES2_(ptr noundef nonnull align 8 dereferenceable(24) %9, ptr noundef nonnull align 8 dereferenceable(24) %42)
  call void @_ZdvRKN12colvarmodule7rvectorEd(ptr dead_on_unwind writable sret(%"class.colvarmodule::rvector") align 8 %10, ptr noundef nonnull align 8 dereferenceable(24) %9, double noundef %43)
  %44 = getelementptr inbounds %class.colvarproxy_system, ptr %13, i32 0, i32 16
  call void @llvm.memcpy.p0.p0.i64(ptr align 8 %44, ptr align 8 %10, i64 24, i1 false)
  %45 = getelementptr inbounds %class.colvarproxy_system, ptr %13, i32 0, i32 12
  %46 = getelementptr inbounds %class.colvarproxy_system, ptr %13, i32 0, i32 13
  call void @_ZN12colvarmodule7rvector5outerERKS0_S2_(ptr dead_on_unwind writable sret(%"class.colvarmodule::rvector") align 8 %11, ptr noundef nonnull align 8 dereferenceable(24) %45, ptr noundef nonnull align 8 dereferenceable(24) %46)
  %47 = getelementptr inbounds %class.colvarproxy_system, ptr %13, i32 0, i32 14
  %48 = call noundef double @_ZmlRKN12colvarmodule7rvectorES2_(ptr noundef nonnull align 8 dereferenceable(24) %11, ptr noundef nonnull align 8 dereferenceable(24) %47)
  call void @_ZdvRKN12colvarmodule7rvectorEd(ptr dead_on_unwind writable sret(%"class.colvarmodule::rvector") align 8 %12, ptr noundef nonnull align 8 dereferenceable(24) %11, double noundef %48)
  %49 = getelementptr inbounds %class.colvarproxy_system, ptr %13, i32 0, i32 17
  call void @llvm.memcpy.p0.p0.i64(ptr align 8 %49, ptr align 8 %12, i64 24, i1 false)
  br label %50

50:                                               ; preds = %34, %24
  ret void

51:                                               ; preds = %33
  %52 = load ptr, ptr %5, align 8
  %53 = load i32, ptr %6, align 4
  %54 = insertvalue { ptr, i32 } poison, ptr %52, 0
  %55 = insertvalue { ptr, i32 } %54, i32 %53, 1
  resume { ptr, i32 } %55
}