; Function Attrs: mustprogress uwtable
define void @_ZN18colvarproxy_system18update_pbc_latticeEv(ptr nocapture noundef nonnull align 8 dereferenceable(256) %0) local_unnamed_addr #3 align 2 personality ptr @__gxx_personality_v0 {
  %2 = alloca %"class.std::__cxx11::basic_string", align 8
  %3 = alloca %"class.std::allocator", align 1
  %4 = getelementptr inbounds i8, ptr %0, i64 108
  %5 = load i32, ptr %4, align 4
  switch i32 %5, label %16 [
    i32 3, label %6
    i32 0, label %6
  ]

6:                                                ; preds = %1, %1
  call void @_ZNSaIcEC1Ev(ptr noundef nonnull align 1 dereferenceable(1) %3) #12
  %7 = invoke noundef ptr @_ZNSt7__cxx1112basic_stringIcSt11char_traitsIcESaIcEE13_M_local_dataEv(ptr noundef nonnull align 8 dereferenceable(32) %2)
          to label %.noexc unwind label %12

.noexc:                                           ; preds = %6
  invoke void @_ZNSt7__cxx1112basic_stringIcSt11char_traitsIcESaIcEE12_Alloc_hiderC1EPcRKS3_(ptr noundef nonnull align 8 dereferenceable(8) %2, ptr noundef %7, ptr noundef nonnull align 1 dereferenceable(1) %3)
          to label %.noexc5 unwind label %12

.noexc5:                                          ; preds = %.noexc
  invoke void @_ZNSt7__cxx1112basic_stringIcSt11char_traitsIcESaIcEE12_M_constructIPKcEEvT_S8_St20forward_iterator_tag(ptr noundef nonnull align 8 dereferenceable(32) %2, ptr noundef nonnull @.str.2, ptr noundef nonnull getelementptr inbounds ([57 x i8], ptr @.str.2, i64 0, i64 56))
          to label %_ZNSt7__cxx1112basic_stringIcSt11char_traitsIcESaIcEEC2IS3_EEPKcRKS3_.exit unwind label %8

8:                                                ; preds = %.noexc5
  %9 = landingpad { ptr, i32 }
          cleanup
  call void @_ZNSaIcED2Ev(ptr noundef nonnull align 1 dereferenceable(1) %2) #12
  br label %.body

_ZNSt7__cxx1112basic_stringIcSt11char_traitsIcESaIcEEC2IS3_EEPKcRKS3_.exit: ; preds = %.noexc5
  %10 = invoke noundef i32 @_ZN12colvarmodule5errorERKNSt7__cxx1112basic_stringIcSt11char_traitsIcESaIcEEEi(ptr noundef nonnull align 8 dereferenceable(32) %2, i32 noundef 8)
          to label %11 unwind label %14

11:                                               ; preds = %_ZNSt7__cxx1112basic_stringIcSt11char_traitsIcESaIcEEC2IS3_EEPKcRKS3_.exit
  call void @_ZNSt7__cxx1112basic_stringIcSt11char_traitsIcESaIcEED1Ev(ptr noundef nonnull align 8 dereferenceable(32) %2) #12
  call void @_ZNSaIcED1Ev(ptr noundef nonnull align 1 dereferenceable(1) %3) #12
  br label %92

12:                                               ; preds = %.noexc, %6
  %13 = landingpad { ptr, i32 }
          cleanup
  br label %.body

14:                                               ; preds = %_ZNSt7__cxx1112basic_stringIcSt11char_traitsIcESaIcEEC2IS3_EEPKcRKS3_.exit
  %15 = landingpad { ptr, i32 }
          cleanup
  call void @_ZNSt7__cxx1112basic_stringIcSt11char_traitsIcESaIcEED1Ev(ptr noundef nonnull align 8 dereferenceable(32) %2) #12
  br label %.body

.body:                                            ; preds = %12, %8, %14
  %.pn = phi { ptr, i32 } [ %15, %14 ], [ %13, %12 ], [ %9, %8 ]
  call void @_ZNSaIcED1Ev(ptr noundef nonnull align 1 dereferenceable(1) %3) #12
  resume { ptr, i32 } %.pn

16:                                               ; preds = %1
  %17 = getelementptr inbounds i8, ptr %0, i64 136
  %18 = getelementptr inbounds i8, ptr %0, i64 144
  %19 = load double, ptr %18, align 8
  %20 = getelementptr inbounds i8, ptr %0, i64 168
  %21 = getelementptr inbounds i8, ptr %0, i64 152
  %22 = load double, ptr %17, align 8
  %23 = fneg double %22
  %24 = getelementptr inbounds i8, ptr %0, i64 112
  %25 = load double, ptr %24, align 8
  %26 = getelementptr inbounds i8, ptr %0, i64 120
  %27 = getelementptr inbounds i8, ptr %0, i64 184
  %28 = load <2 x double>, ptr %21, align 8
  %29 = shufflevector <2 x double> %28, <2 x double> poison, <2 x i32> <i32 1, i32 0>
  %30 = extractelement <2 x double> %28, i64 1
  %.sroa.322.0..sroa_idx = getelementptr inbounds i8, ptr %0, i64 200
  %31 = fneg double %25
  %32 = insertelement <2 x double> poison, double %22, i64 0
  %33 = insertelement <2 x double> poison, double %25, i64 0
  %34 = insertelement <2 x double> %33, double %22, i64 1
  %.sroa.212.0..sroa_idx = getelementptr inbounds i8, ptr %0, i64 216
  %35 = load <2 x double>, ptr %20, align 8
  %36 = load <2 x double>, ptr %26, align 8
  %37 = fneg <2 x double> %35
  %38 = shufflevector <2 x double> %37, <2 x double> %29, <2 x i32> <i32 0, i32 3>
  %39 = fmul <2 x double> %28, %38
  %40 = shufflevector <2 x double> %35, <2 x double> poison, <2 x i32> <i32 1, i32 poison>
  %41 = insertelement <2 x double> %40, double %23, i64 1
  %42 = insertelement <2 x double> %35, double %19, i64 0
  %43 = tail call <2 x double> @llvm.fmuladd.v2f64(<2 x double> %41, <2 x double> %42, <2 x double> %39)
  %44 = insertelement <2 x double> poison, double %31, i64 0
  %45 = insertelement <2 x double> %44, double %25, i64 1
  %46 = fmul <2 x double> %35, %45
  %47 = shufflevector <2 x double> %29, <2 x double> %36, <2 x i32> <i32 0, i32 2>
  %48 = fneg <2 x double> %47
  %49 = fmul <2 x double> %42, %48
  %50 = shufflevector <2 x double> %32, <2 x double> %35, <2 x i32> <i32 0, i32 2>
  %51 = shufflevector <2 x double> %35, <2 x double> %36, <2 x i32> <i32 0, i32 3>
  %52 = tail call <2 x double> @llvm.fmuladd.v2f64(<2 x double> %50, <2 x double> %51, <2 x double> %49)
  %53 = shufflevector <2 x double> %28, <2 x double> %48, <2 x i32> <i32 1, i32 2>
  %54 = tail call <2 x double> @llvm.fmuladd.v2f64(<2 x double> %53, <2 x double> %36, <2 x double> %46)
  %55 = shufflevector <2 x double> %43, <2 x double> poison, <2 x i32> <i32 1, i32 poison>
  %56 = shufflevector <2 x double> %55, <2 x double> %54, <2 x i32> <i32 0, i32 3>
  %57 = insertelement <2 x double> %36, double %19, i64 1
  %58 = fmul <2 x double> %56, %57
  %59 = shufflevector <2 x double> %43, <2 x double> %52, <2 x i32> <i32 0, i32 3>
  %60 = tail call <2 x double> @llvm.fmuladd.v2f64(<2 x double> %59, <2 x double> %34, <2 x double> %58)
  %61 = shufflevector <2 x double> %52, <2 x double> %54, <2 x i32> <i32 0, i32 2>
  %62 = shufflevector <2 x double> %29, <2 x double> %36, <2 x i32> <i32 3, i32 1>
  %63 = tail call <2 x double> @llvm.fmuladd.v2f64(<2 x double> %61, <2 x double> %62, <2 x double> %60)
  %64 = shufflevector <2 x double> %63, <2 x double> poison, <2 x i32> zeroinitializer
  %65 = fdiv <2 x double> %43, %64
  store <2 x double> %65, ptr %27, align 8
  %66 = fdiv <2 x double> %52, %63
  %67 = shufflevector <2 x double> %63, <2 x double> poison, <2 x i32> <i32 1, i32 1>
  %68 = fdiv <2 x double> %54, %67
  store <2 x double> %66, ptr %.sroa.322.0..sroa_idx, align 8
  %69 = shufflevector <2 x double> %68, <2 x double> poison, <2 x i32> <i32 1, i32 0>
  store <2 x double> %69, ptr %.sroa.212.0..sroa_idx, align 8
  %70 = fneg double %19
  %71 = extractelement <2 x double> %36, i64 0
  %72 = fmul double %71, %23
  %73 = tail call double @llvm.fmuladd.f64(double %25, double %19, double %72)
  %74 = extractelement <2 x double> %35, i64 1
  %75 = getelementptr inbounds i8, ptr %0, i64 232
  %76 = shufflevector <2 x double> %36, <2 x double> poison, <2 x i32> <i32 1, i32 1>
  %77 = insertelement <2 x double> poison, double %70, i64 0
  %78 = insertelement <2 x double> %77, double %22, i64 1
  %79 = fmul <2 x double> %76, %78
  %80 = insertelement <2 x double> %36, double %31, i64 1
  %81 = shufflevector <2 x double> %28, <2 x double> poison, <2 x i32> zeroinitializer
  %82 = tail call <2 x double> @llvm.fmuladd.v2f64(<2 x double> %80, <2 x double> %81, <2 x double> %79)
  %shift = shufflevector <2 x double> %82, <2 x double> poison, <2 x i32> <i32 1, i32 poison>
  %83 = fmul <2 x double> %35, %shift
  %84 = extractelement <2 x double> %83, i64 0
  %85 = extractelement <2 x double> %82, i64 0
  %86 = tail call double @llvm.fmuladd.f64(double %85, double %30, double %84)
  %87 = tail call noundef double @llvm.fmuladd.f64(double %73, double %74, double %86)
  %88 = insertelement <2 x double> poison, double %87, i64 0
  %89 = shufflevector <2 x double> %88, <2 x double> poison, <2 x i32> zeroinitializer
  %90 = fdiv <2 x double> %82, %89
  %91 = fdiv double %73, %87
  store <2 x double> %90, ptr %75, align 8
  %.sroa.3.0..sroa_idx = getelementptr inbounds i8, ptr %0, i64 248
  store double %91, ptr %.sroa.3.0..sroa_idx, align 8
  br label %92

92:                                               ; preds = %16, %11
  ret void
}